; Function Attrs: mustprogress nofree norecurse nosync nounwind willreturn memory(read, inaccessiblemem: none) uwtable
define range(i32 0, 2) i32 @H5T_is_variable_str(ptr nocapture noundef readonly %0) local_unnamed_addr #5 {
  %2 = getelementptr inbounds i8, ptr %0, i64 40
  %3 = load ptr, ptr %2, align 8
  %4 = getelementptr inbounds i8, ptr %3, i64 12
  %5 = load i32, ptr %4, align 4
  %6 = icmp eq i32 %5, 9
  br i1 %6, label %7, label %12

7:                                                ; preds = %1
  %8 = getelementptr inbounds i8, ptr %3, i64 48
  %9 = load i32, ptr %8, align 8
  %10 = icmp eq i32 %9, 1
  %11 = zext i1 %10 to i32
  br label %12

12:                                               ; preds = %7, %1
  %13 = phi i32 [ 0, %1 ], [ %11, %7 ]
  ret i32 %13
}